target datalayout = "e-m:e-p270:32:32-p271:32:32-p272:64:64-i64:64-i128:128-f80:128-n8:16:32:64-S128"
target triple = "x86_64-pc-linux-gnu"

; Function Attrs: mustprogress uwtable
define void @_ZN3nix17StorePathsCommandC2Eb(ptr noundef nonnull align 8 dereferenceable(480) %0, ptr noundef %1, i1 noundef zeroext %2) unnamed_addr #5 align 2 {
  %4 = alloca ptr, align 8
  %5 = alloca ptr, align 8
  %6 = alloca i8, align 1
  store ptr %0, ptr %4, align 8
  store ptr %1, ptr %5, align 8
  %7 = zext i1 %2 to i8
  store i8 %7, ptr %6, align 1
  %8 = load ptr, ptr %4, align 8
  %9 = load ptr, ptr %5, align 8
  %10 = load i8, ptr %6, align 1
  %11 = trunc i8 %10 to i1
  %12 = getelementptr inbounds ptr, ptr %9, i64 1
  call void @_ZN3nix17BuiltPathsCommandC2Eb(ptr noundef nonnull align 8 dereferenceable(480) %8, ptr noundef %12, i1 noundef zeroext %11)
  %13 = load ptr, ptr %9, align 8
  store ptr %13, ptr %8, align 8
  %14 = getelementptr inbounds ptr, ptr %9, i64 35
  %15 = load ptr, ptr %14, align 8
  %16 = load ptr, ptr %8, align 8
  %17 = getelementptr i8, ptr %16, i64 -24
  %18 = load i64, ptr %17, align 8
  %19 = getelementptr inbounds i8, ptr %8, i64 %18
  store ptr %15, ptr %19, align 8
  %20 = getelementptr inbounds ptr, ptr %9, i64 36
  %21 = load ptr, ptr %20, align 8
  %22 = load ptr, ptr %8, align 8
  %23 = getelementptr i8, ptr %22, i64 -40
  %24 = load i64, ptr %23, align 8
  %25 = getelementptr inbounds i8, ptr %8, i64 %24
  store ptr %21, ptr %25, align 8
  %26 = getelementptr inbounds ptr, ptr %9, i64 37
  %27 = load ptr, ptr %26, align 8
  %28 = load ptr, ptr %8, align 8
  %29 = getelementptr i8, ptr %28, i64 -48
  %30 = load i64, ptr %29, align 8
  %31 = getelementptr inbounds i8, ptr %8, i64 %30
  store ptr %27, ptr %31, align 8
  %32 = getelementptr inbounds ptr, ptr %9, i64 38
  %33 = load ptr, ptr %32, align 8
  %34 = load ptr, ptr %8, align 8
  %35 = getelementptr i8, ptr %34, i64 -32
  %36 = load i64, ptr %35, align 8
  %37 = getelementptr inbounds i8, ptr %8, i64 %36
  store ptr %33, ptr %37, align 8
  %38 = getelementptr inbounds ptr, ptr %9, i64 39
  %39 = load ptr, ptr %38, align 8
  %40 = load ptr, ptr %8, align 8
  %41 = getelementptr i8, ptr %40, i64 -56
  %42 = load i64, ptr %41, align 8
  %43 = getelementptr inbounds i8, ptr %8, i64 %42
  store ptr %39, ptr %43, align 8
  ret void
}