; Function Attrs: mustprogress uwtable
define void @_ZN3nix17StorePathsCommandC2Eb(ptr noundef nonnull align 8 dereferenceable(480) %0, ptr noundef %1, i1 noundef zeroext %2) unnamed_addr #4 align 2 {
  %4 = getelementptr inbounds i8, ptr %1, i64 8
  tail call void @_ZN3nix17BuiltPathsCommandC2Eb(ptr noundef nonnull align 8 dereferenceable(480) %0, ptr noundef nonnull %4, i1 noundef zeroext %2)
  %5 = load ptr, ptr %1, align 8
  store ptr %5, ptr %0, align 8
  %6 = getelementptr inbounds i8, ptr %1, i64 280
  %7 = load ptr, ptr %6, align 8
  %8 = getelementptr i8, ptr %5, i64 -24
  %9 = load i64, ptr %8, align 8
  %10 = getelementptr inbounds i8, ptr %0, i64 %9
  store ptr %7, ptr %10, align 8
  %11 = getelementptr inbounds i8, ptr %1, i64 288
  %12 = load ptr, ptr %11, align 8
  %13 = load ptr, ptr %0, align 8
  %14 = getelementptr i8, ptr %13, i64 -40
  %15 = load i64, ptr %14, align 8
  %16 = getelementptr inbounds i8, ptr %0, i64 %15
  store ptr %12, ptr %16, align 8
  %17 = getelementptr inbounds i8, ptr %1, i64 296
  %18 = load ptr, ptr %17, align 8
  %19 = load ptr, ptr %0, align 8
  %20 = getelementptr i8, ptr %19, i64 -48
  %21 = load i64, ptr %20, align 8
  %22 = getelementptr inbounds i8, ptr %0, i64 %21
  store ptr %18, ptr %22, align 8
  %23 = getelementptr inbounds i8, ptr %1, i64 304
  %24 = load ptr, ptr %23, align 8
  %25 = load ptr, ptr %0, align 8
  %26 = getelementptr i8, ptr %25, i64 -32
  %27 = load i64, ptr %26, align 8
  %28 = getelementptr inbounds i8, ptr %0, i64 %27
  store ptr %24, ptr %28, align 8
  %29 = getelementptr inbounds i8, ptr %1, i64 312
  %30 = load ptr, ptr %29, align 8
  %31 = load ptr, ptr %0, align 8
  %32 = getelementptr i8, ptr %31, i64 -56
  %33 = load i64, ptr %32, align 8
  %34 = getelementptr inbounds i8, ptr %0, i64 %33
  store ptr %30, ptr %34, align 8
  ret void
}